target datalayout = "e-m:e-p270:32:32-p271:32:32-p272:64:64-i64:64-i128:128-f80:128-n8:16:32:64-S128"
target triple = "x86_64-pc-linux-gnu"

%struct.strbuf = type { i64, i64, ptr }
%struct.strvec = type { ptr, i64, i64 }
%struct.__va_list_tag = type { i32, i32, ptr, ptr }
%struct.replay_opts = type { i32, i32, i32, i32, i32, i32, i32, i32, i32, i32, i32, i32, i32, i32, i32, i32, i32, i32, ptr, i32, i32, ptr, ptr, %struct.strvec, ptr, %struct.object_id, i32, ptr, ptr }
%struct.object_id = type { [32 x i8], i32 }

@strbuf_slopbuf = external global [0 x i8], align 1
@.str.28 = private unnamed_addr constant [3 x i8] c": \00", align 1
@.str.76 = private unnamed_addr constant [7 x i8] c"revert\00", align 1
@.str.77 = private unnamed_addr constant [12 x i8] c"cherry-pick\00", align 1
@.str.100 = private unnamed_addr constant [7 x i8] c"rebase\00", align 1
@.str.114 = private unnamed_addr constant [11 x i8] c"./strbuf.h\00", align 1
@.str.115 = private unnamed_addr constant [30 x i8] c"strbuf_setlen() beyond buffer\00", align 1
@.str.208 = private unnamed_addr constant [19 x i8] c"unknown action: %d\00", align 1
@reflog_message.buf = internal global %struct.strbuf { i64 0, i64 0, ptr @strbuf_slopbuf }, align 8
@.str.243 = private unnamed_addr constant [6 x i8] c" (%s)\00", align 1
@.str.244 = private unnamed_addr constant [18 x i8] c"GIT_REFLOG_ACTION\00", align 1

; Function Attrs: nounwind uwtable
define internal ptr @action_name(ptr noundef %0) #0 {
  %2 = alloca ptr, align 8
  %3 = alloca ptr, align 8
  store ptr %0, ptr %3, align 8, !tbaa !13
  %4 = load ptr, ptr %3, align 8, !tbaa !13
  %5 = getelementptr inbounds nuw %struct.replay_opts, ptr %4, i32 0, i32 0
  %6 = load i32, ptr %5, align 8, !tbaa !31
  switch i32 %6, label %10 [
    i32 0, label %7
    i32 1, label %8
    i32 2, label %9
  ]

7:                                                ; preds = %1
  store ptr @.str.76, ptr %2, align 8
  br label %15

8:                                                ; preds = %1
  store ptr @.str.77, ptr %2, align 8
  br label %15

9:                                                ; preds = %1
  store ptr @.str.100, ptr %2, align 8
  br label %15

10:                                               ; preds = %1
  %11 = call ptr @_(ptr noundef @.str.208)
  %12 = load ptr, ptr %3, align 8, !tbaa !13
  %13 = getelementptr inbounds nuw %struct.replay_opts, ptr %12, i32 0, i32 0
  %14 = load i32, ptr %13, align 8, !tbaa !31
  call void (ptr, ...) @die(ptr noundef %11, i32 noundef %14) #13
  unreachable

15:                                               ; preds = %9, %8, %7
  %16 = load ptr, ptr %2, align 8
  ret ptr %16
}

; Function Attrs: inlinehint nounwind uwtable
define internal void @strbuf_addstr(ptr noundef %0, ptr noundef %1) #1 {
  %3 = alloca ptr, align 8
  %4 = alloca ptr, align 8
  store ptr %0, ptr %3, align 8, !tbaa !41
  store ptr %1, ptr %4, align 8, !tbaa !4
  %5 = load ptr, ptr %3, align 8, !tbaa !41
  %6 = load ptr, ptr %4, align 8, !tbaa !4
  %7 = load ptr, ptr %4, align 8, !tbaa !4
  %8 = call i64 @strlen(ptr noundef %7) #12
  call void @strbuf_add(ptr noundef %5, ptr noundef %6, i64 noundef %8)
  ret void
}

; Function Attrs: nounwind uwtable
define internal ptr @sequencer_reflog_action(ptr noundef %0) #0 {
  %2 = alloca ptr, align 8
  store ptr %0, ptr %2, align 8, !tbaa !13
  %3 = load ptr, ptr %2, align 8, !tbaa !13
  %4 = getelementptr inbounds nuw %struct.replay_opts, ptr %3, i32 0, i32 24
  %5 = load ptr, ptr %4, align 8, !tbaa !34
  %6 = icmp ne ptr %5, null
  br i1 %6, label %27, label %7

7:                                                ; preds = %1
  %8 = call ptr @getenv(ptr noundef @.str.244) #11
  %9 = load ptr, ptr %2, align 8, !tbaa !13
  %10 = getelementptr inbounds nuw %struct.replay_opts, ptr %9, i32 0, i32 24
  store ptr %8, ptr %10, align 8, !tbaa !34
  %11 = load ptr, ptr %2, align 8, !tbaa !13
  %12 = getelementptr inbounds nuw %struct.replay_opts, ptr %11, i32 0, i32 24
  %13 = load ptr, ptr %12, align 8, !tbaa !34
  %14 = icmp ne ptr %13, null
  br i1 %14, label %15, label %19

15:                                               ; preds = %7
  %16 = load ptr, ptr %2, align 8, !tbaa !13
  %17 = getelementptr inbounds nuw %struct.replay_opts, ptr %16, i32 0, i32 24
  %18 = load ptr, ptr %17, align 8, !tbaa !34
  br label %22

19:                                               ; preds = %7
  %20 = load ptr, ptr %2, align 8, !tbaa !13
  %21 = call ptr @action_name(ptr noundef %20)
  br label %22

22:                                               ; preds = %19, %15
  %23 = phi ptr [ %18, %15 ], [ %21, %19 ]
  %24 = call ptr @xstrdup(ptr noundef %23)
  %25 = load ptr, ptr %2, align 8, !tbaa !13
  %26 = getelementptr inbounds nuw %struct.replay_opts, ptr %25, i32 0, i32 24
  store ptr %24, ptr %26, align 8, !tbaa !34
  br label %27

27:                                               ; preds = %22, %1
  %28 = load ptr, ptr %2, align 8, !tbaa !13
  %29 = getelementptr inbounds nuw %struct.replay_opts, ptr %28, i32 0, i32 24
  %30 = load ptr, ptr %29, align 8, !tbaa !34
  ret ptr %30
}

; Function Attrs: inlinehint nounwind uwtable
define internal void @strbuf_setlen(ptr noundef %0, i64 noundef %1) #1 {
  %3 = alloca ptr, align 8
  %4 = alloca i64, align 8
  store ptr %0, ptr %3, align 8, !tbaa !41
  store i64 %1, ptr %4, align 8, !tbaa !43
  %5 = load i64, ptr %4, align 8, !tbaa !43
  %6 = load ptr, ptr %3, align 8, !tbaa !41
  %7 = getelementptr inbounds nuw %struct.strbuf, ptr %6, i32 0, i32 0
  %8 = load i64, ptr %7, align 8, !tbaa !44
  %9 = icmp ne i64 %8, 0
  br i1 %9, label %10, label %15

10:                                               ; preds = %2
  %11 = load ptr, ptr %3, align 8, !tbaa !41
  %12 = getelementptr inbounds nuw %struct.strbuf, ptr %11, i32 0, i32 0
  %13 = load i64, ptr %12, align 8, !tbaa !44
  %14 = sub i64 %13, 1
  br label %16

15:                                               ; preds = %2
  br label %16

16:                                               ; preds = %15, %10
  %17 = phi i64 [ %14, %10 ], [ 0, %15 ]
  %18 = icmp ugt i64 %5, %17
  br i1 %18, label %19, label %20

19:                                               ; preds = %16
  call void (ptr, i32, ptr, ...) @BUG_fl(ptr noundef @.str.114, i32 noundef 167, ptr noundef @.str.115) #13
  unreachable

20:                                               ; preds = %16
  %21 = load i64, ptr %4, align 8, !tbaa !43
  %22 = load ptr, ptr %3, align 8, !tbaa !41
  %23 = getelementptr inbounds nuw %struct.strbuf, ptr %22, i32 0, i32 1
  store i64 %21, ptr %23, align 8, !tbaa !45
  %24 = load ptr, ptr %3, align 8, !tbaa !41
  %25 = getelementptr inbounds nuw %struct.strbuf, ptr %24, i32 0, i32 2
  %26 = load ptr, ptr %25, align 8, !tbaa !37
  %27 = icmp ne ptr %26, @strbuf_slopbuf
  br i1 %27, label %28, label %34

28:                                               ; preds = %20
  %29 = load ptr, ptr %3, align 8, !tbaa !41
  %30 = getelementptr inbounds nuw %struct.strbuf, ptr %29, i32 0, i32 2
  %31 = load ptr, ptr %30, align 8, !tbaa !37
  %32 = load i64, ptr %4, align 8, !tbaa !43
  %33 = getelementptr inbounds nuw i8, ptr %31, i64 %32
  store i8 0, ptr %33, align 1, !tbaa !30
  br label %35

34:                                               ; preds = %20
  br label %35

35:                                               ; preds = %34, %28
  ret void
}

; Function Attrs: nounwind uwtable
define internal ptr @reflog_message(ptr noundef %0, ptr noundef %1, ptr noundef %2, ...) #0 {
  %4 = alloca ptr, align 8
  %5 = alloca ptr, align 8
  %6 = alloca ptr, align 8
  %7 = alloca [1 x %struct.__va_list_tag], align 16
  store ptr %0, ptr %4, align 8, !tbaa !13
  store ptr %1, ptr %5, align 8, !tbaa !4
  store ptr %2, ptr %6, align 8, !tbaa !4
  call void @llvm.lifetime.start.p0(i64 24, ptr %7) #11
  %8 = getelementptr inbounds [1 x %struct.__va_list_tag], ptr %7, i64 0, i64 0
  call void @llvm.va_start.p0(ptr %8)
  call void @strbuf_setlen(ptr noundef @reflog_message.buf, i64 noundef 0)
  %9 = load ptr, ptr %4, align 8, !tbaa !13
  %10 = call ptr @sequencer_reflog_action(ptr noundef %9)
  call void @strbuf_addstr(ptr noundef @reflog_message.buf, ptr noundef %10)
  %11 = load ptr, ptr %5, align 8, !tbaa !4
  %12 = icmp ne ptr %11, null
  br i1 %12, label %13, label %15

13:                                               ; preds = %3
  %14 = load ptr, ptr %5, align 8, !tbaa !4
  call void (ptr, ptr, ...) @strbuf_addf(ptr noundef @reflog_message.buf, ptr noundef @.str.243, ptr noundef %14)
  br label %15

15:                                               ; preds = %13, %3
  %16 = load ptr, ptr %6, align 8, !tbaa !4
  %17 = icmp ne ptr %16, null
  br i1 %17, label %18, label %21

18:                                               ; preds = %15
  call void @strbuf_addstr(ptr noundef @reflog_message.buf, ptr noundef @.str.28)
  %19 = load ptr, ptr %6, align 8, !tbaa !4
  %20 = getelementptr inbounds [1 x %struct.__va_list_tag], ptr %7, i64 0, i64 0
  call void @strbuf_vaddf(ptr noundef @reflog_message.buf, ptr noundef %19, ptr noundef %20)
  br label %21

21:                                               ; preds = %18, %15
  %22 = getelementptr inbounds [1 x %struct.__va_list_tag], ptr %7, i64 0, i64 0
  call void @llvm.va_end.p0(ptr %22)
  %23 = load ptr, ptr getelementptr inbounds nuw (%struct.strbuf, ptr @reflog_message.buf, i32 0, i32 2), align 8, !tbaa !37
  call void @llvm.lifetime.end.p0(i64 24, ptr %7) #11
  ret ptr %23
}