; Function Attrs: nounwind uwtable
define internal ptr @reflog_message(ptr noundef captures(none) %0, ptr noundef %1, ptr noundef %2, ...) unnamed_addr #0 {
  %4 = alloca [1 x %struct.__va_list_tag], align 16
  call void @llvm.lifetime.start.p0(i64 24, ptr nonnull %4) #20
  call void @llvm.va_start.p0(ptr nonnull %4)
  store i64 0, ptr getelementptr inbounds nuw (i8, ptr @reflog_message.buf, i64 8), align 8, !tbaa !33
  %5 = load ptr, ptr getelementptr inbounds nuw (i8, ptr @reflog_message.buf, i64 16), align 8, !tbaa !31
  %.not9.i = icmp eq ptr %5, @strbuf_slopbuf
  br i1 %.not9.i, label %strbuf_setlen.exit, label %6

6:                                                ; preds = %3
  store i8 0, ptr %5, align 1, !tbaa !24
  br label %strbuf_setlen.exit

strbuf_setlen.exit:                               ; preds = %3, %6
  %7 = getelementptr inbounds nuw i8, ptr %0, i64 128
  %8 = load ptr, ptr %7, align 8, !tbaa !28
  %.not.i = icmp eq ptr %8, null
  br i1 %.not.i, label %9, label %sequencer_reflog_action.exit

9:                                                ; preds = %strbuf_setlen.exit
  %10 = call ptr @getenv(ptr noundef nonnull @.str.244) #20
  store ptr %10, ptr %7, align 8, !tbaa !28
  %.not7.i = icmp eq ptr %10, null
  br i1 %.not7.i, label %11, label %action_name.exit.i

11:                                               ; preds = %9
  %12 = load i32, ptr %0, align 8, !tbaa !25
  %13 = icmp ult i32 %12, 3
  br i1 %13, label %switch.lookup, label %14

14:                                               ; preds = %11
  %15 = call fastcc ptr @_(ptr noundef nonnull @.str.208)
  %16 = load i32, ptr %0, align 8, !tbaa !25
  call void (ptr, ...) @die(ptr noundef %15, i32 noundef %16) #22
  unreachable

switch.lookup:                                    ; preds = %11
  %17 = zext nneg i32 %12 to i64
  %switch.gep = getelementptr inbounds nuw [3 x ptr], ptr @switch.table.fast_forward_to, i64 0, i64 %17
  %switch.load = load ptr, ptr %switch.gep, align 8
  br label %action_name.exit.i

action_name.exit.i:                               ; preds = %switch.lookup, %9
  %18 = phi ptr [ %10, %9 ], [ %switch.load, %switch.lookup ]
  %19 = call ptr @xstrdup(ptr noundef nonnull %18) #20
  store ptr %19, ptr %7, align 8, !tbaa !28
  br label %sequencer_reflog_action.exit

sequencer_reflog_action.exit:                     ; preds = %strbuf_setlen.exit, %action_name.exit.i
  %20 = phi ptr [ %19, %action_name.exit.i ], [ %8, %strbuf_setlen.exit ]
  %21 = call i64 @strlen(ptr noundef nonnull dereferenceable(1) %20) #21
  call void @strbuf_add(ptr noundef nonnull @reflog_message.buf, ptr noundef nonnull %20, i64 noundef %21) #20
  %.not = icmp eq ptr %1, null
  br i1 %.not, label %23, label %22

22:                                               ; preds = %sequencer_reflog_action.exit
  call void (ptr, ptr, ...) @strbuf_addf(ptr noundef nonnull @reflog_message.buf, ptr noundef nonnull @.str.243, ptr noundef nonnull %1) #20
  br label %23

23:                                               ; preds = %22, %sequencer_reflog_action.exit
  %.not6 = icmp eq ptr %2, null
  br i1 %.not6, label %25, label %24

24:                                               ; preds = %23
  call void @strbuf_add(ptr noundef nonnull @reflog_message.buf, ptr noundef nonnull @.str.28, i64 noundef 2) #20
  call void @strbuf_vaddf(ptr noundef nonnull @reflog_message.buf, ptr noundef nonnull %2, ptr noundef nonnull %4) #20
  br label %25

25:                                               ; preds = %24, %23
  call void @llvm.va_end.p0(ptr nonnull %4)
  %26 = load ptr, ptr getelementptr inbounds nuw (i8, ptr @reflog_message.buf, i64 16), align 8, !tbaa !31
  call void @llvm.lifetime.end.p0(i64 24, ptr nonnull %4) #20
  ret ptr %26
}